; Function Attrs: mustprogress uwtable
define hidden void @_ZN3mbp14project_plugin9push_backER10ref_vectorI4expr11ast_managerEPS2_(ptr noundef nonnull readonly align 8 captures(none) dereferenceable(144) %0, ptr noundef nonnull align 8 dereferenceable(16) %1, ptr noundef %2) local_unnamed_addr #3 align 2 {
  %4 = getelementptr inbounds nuw i8, ptr %0, i64 8
  %5 = load ptr, ptr %4, align 8, !tbaa !47
  %6 = getelementptr inbounds nuw i8, ptr %5, i64 856
  %7 = load ptr, ptr %6, align 8, !tbaa !56
  %8 = icmp eq ptr %2, %7
  br i1 %8, label %30, label %9

9:                                                ; preds = %3
  %.not.i.i.i.i = icmp eq ptr %2, null
  br i1 %.not.i.i.i.i, label %_ZN15ref_vector_coreI4expr19ref_manager_wrapperIS0_11ast_managerEE7inc_refEPS0_.exit.i, label %10

10:                                               ; preds = %9
  %11 = getelementptr inbounds nuw i8, ptr %2, i64 8
  %12 = load i32, ptr %11, align 4, !tbaa !30
  %13 = add i32 %12, 1
  store i32 %13, ptr %11, align 4, !tbaa !30
  br label %_ZN15ref_vector_coreI4expr19ref_manager_wrapperIS0_11ast_managerEE7inc_refEPS0_.exit.i

_ZN15ref_vector_coreI4expr19ref_manager_wrapperIS0_11ast_managerEE7inc_refEPS0_.exit.i: ; preds = %10, %9
  %14 = getelementptr inbounds nuw i8, ptr %1, i64 8
  %15 = load ptr, ptr %14, align 8, !tbaa !3
  %16 = icmp eq ptr %15, null
  br i1 %16, label %23, label %17

17:                                               ; preds = %_ZN15ref_vector_coreI4expr19ref_manager_wrapperIS0_11ast_managerEE7inc_refEPS0_.exit.i
  %18 = getelementptr inbounds i8, ptr %15, i64 -4
  %19 = load i32, ptr %18, align 4, !tbaa !10
  %20 = getelementptr inbounds i8, ptr %15, i64 -8
  %21 = load i32, ptr %20, align 4, !tbaa !10
  %22 = icmp eq i32 %19, %21
  br i1 %22, label %23, label %_ZN15ref_vector_coreI4expr19ref_manager_wrapperIS0_11ast_managerEE9push_backEPS0_.exit

23:                                               ; preds = %17, %_ZN15ref_vector_coreI4expr19ref_manager_wrapperIS0_11ast_managerEE7inc_refEPS0_.exit.i
  tail call void @_ZN6vectorIP4exprLb0EjE13expand_vectorEv(ptr noundef nonnull align 8 dereferenceable(8) %14)
  %.pre.i.i = load ptr, ptr %14, align 8, !tbaa !3
  %.phi.trans.insert.i.i = getelementptr inbounds i8, ptr %.pre.i.i, i64 -4
  %.pre2.i.i = load i32, ptr %.phi.trans.insert.i.i, align 4, !tbaa !10
  br label %_ZN15ref_vector_coreI4expr19ref_manager_wrapperIS0_11ast_managerEE9push_backEPS0_.exit

_ZN15ref_vector_coreI4expr19ref_manager_wrapperIS0_11ast_managerEE9push_backEPS0_.exit: ; preds = %17, %23
  %24 = phi i32 [ %.pre2.i.i, %23 ], [ %19, %17 ]
  %25 = phi ptr [ %.pre.i.i, %23 ], [ %15, %17 ]
  %26 = getelementptr inbounds i8, ptr %25, i64 -4
  %27 = zext i32 %24 to i64
  %28 = getelementptr inbounds nuw ptr, ptr %25, i64 %27
  store ptr %2, ptr %28, align 8, !tbaa !12
  %29 = add i32 %24, 1
  store i32 %29, ptr %26, align 4, !tbaa !10
  br label %30

30:                                               ; preds = %_ZN15ref_vector_coreI4expr19ref_manager_wrapperIS0_11ast_managerEE9push_backEPS0_.exit, %3
  ret void
}